target datalayout = "e-m:e-p270:32:32-p271:32:32-p272:64:64-i64:64-i128:128-f80:128-n8:16:32:64-S128"
target triple = "x86_64-pc-linux-gnu"

%struct.php_file_globals = type { i32, i64, i8, i64, ptr, ptr, ptr, ptr, ptr, ptr, ptr, i32, %struct.hostent, ptr, i64 }
%struct.hostent = type { ptr, ptr, i32, i32, ptr }
%struct._zval_struct = type { %union._zend_value, %union.anon.3, %union.anon.6 }
%union._zend_value = type { i64 }
%union.anon.3 = type { i32 }
%union.anon.6 = type { i32 }
%struct._php_stream_wrapper = type { ptr, ptr, i32 }
%struct._php_stream = type { ptr, ptr, %struct._php_stream_filter_chain, %struct._php_stream_filter_chain, ptr, ptr, %struct._zval_struct, i16, [16 x i8], i32, ptr, ptr, ptr, ptr, i64, ptr, i64, i64, i64, i64, ptr }
%struct._php_stream_filter_chain = type { ptr, ptr, ptr }
%struct._php_stream_wrapper_ops = type { ptr, ptr, ptr, ptr, ptr, ptr, ptr, ptr, ptr, ptr, ptr }

@file_globals = external global %struct.php_file_globals, align 8
@.str.19 = private unnamed_addr constant [2 x i8] c"r\00", align 1
@.str.20 = private unnamed_addr constant [16 x i8] c"not implemented\00", align 1
@.str.21 = private unnamed_addr constant [25 x i8] c"Failed to open directory\00", align 1

; Function Attrs: nounwind uwtable
define internal void @php_stream_tidy_wrapper_error_log(ptr noundef %0) #0 {
  %2 = alloca ptr, align 8
  store ptr %0, ptr %2, align 8
  %3 = load ptr, ptr %2, align 8
  %4 = icmp ne ptr %3, null
  br i1 %4, label %5, label %11

5:                                                ; preds = %1
  %6 = load ptr, ptr getelementptr inbounds (%struct.php_file_globals, ptr @file_globals, i32 0, i32 10), align 8
  %7 = icmp ne ptr %6, null
  br i1 %7, label %8, label %11

8:                                                ; preds = %5
  %9 = load ptr, ptr getelementptr inbounds (%struct.php_file_globals, ptr @file_globals, i32 0, i32 10), align 8
  %10 = call i32 @zend_hash_str_del(ptr noundef %9, ptr noundef %2, i64 noundef 8)
  br label %11

11:                                               ; preds = %8, %5, %1
  ret void
}

; Function Attrs: nounwind uwtable
define ptr @_php_stream_opendir(ptr noundef %0, i32 noundef %1, ptr noundef %2) #0 {
  %4 = alloca ptr, align 8
  %5 = alloca ptr, align 8
  %6 = alloca i32, align 4
  %7 = alloca ptr, align 8
  %8 = alloca ptr, align 8
  %9 = alloca ptr, align 8
  %10 = alloca ptr, align 8
  store ptr %0, ptr %5, align 8
  store i32 %1, ptr %6, align 4
  store ptr %2, ptr %7, align 8
  store ptr null, ptr %8, align 8
  store ptr null, ptr %9, align 8
  %11 = load ptr, ptr %5, align 8
  %12 = icmp ne ptr %11, null
  br i1 %12, label %13, label %17

13:                                               ; preds = %3
  %14 = load ptr, ptr %5, align 8
  %15 = load i8, ptr %14, align 1
  %16 = icmp ne i8 %15, 0
  br i1 %16, label %18, label %17

17:                                               ; preds = %13, %3
  store ptr null, ptr %4, align 8
  br label %76

18:                                               ; preds = %13
  %19 = load ptr, ptr %5, align 8
  store ptr %19, ptr %10, align 8
  %20 = load ptr, ptr %5, align 8
  %21 = load i32, ptr %6, align 4
  %22 = call ptr @php_stream_locate_url_wrapper(ptr noundef %20, ptr noundef %10, i32 noundef %21)
  store ptr %22, ptr %9, align 8
  %23 = load ptr, ptr %9, align 8
  %24 = icmp ne ptr %23, null
  br i1 %24, label %25, label %55

25:                                               ; preds = %18
  %26 = load ptr, ptr %9, align 8
  %27 = getelementptr inbounds %struct._php_stream_wrapper, ptr %26, i32 0, i32 0
  %28 = load ptr, ptr %27, align 8
  %29 = getelementptr inbounds %struct._php_stream_wrapper_ops, ptr %28, i32 0, i32 4
  %30 = load ptr, ptr %29, align 8
  %31 = icmp ne ptr %30, null
  br i1 %31, label %32, label %55

32:                                               ; preds = %25
  %33 = load ptr, ptr %9, align 8
  %34 = getelementptr inbounds %struct._php_stream_wrapper, ptr %33, i32 0, i32 0
  %35 = load ptr, ptr %34, align 8
  %36 = getelementptr inbounds %struct._php_stream_wrapper_ops, ptr %35, i32 0, i32 4
  %37 = load ptr, ptr %36, align 8
  %38 = load ptr, ptr %9, align 8
  %39 = load ptr, ptr %10, align 8
  %40 = load i32, ptr %6, align 4
  %41 = and i32 %40, -9
  %42 = load ptr, ptr %7, align 8
  %43 = call ptr %37(ptr noundef %38, ptr noundef %39, ptr noundef @.str.19, i32 noundef %41, ptr noundef null, ptr noundef %42)
  store ptr %43, ptr %8, align 8
  %44 = load ptr, ptr %8, align 8
  %45 = icmp ne ptr %44, null
  br i1 %45, label %46, label %54

46:                                               ; preds = %32
  %47 = load ptr, ptr %9, align 8
  %48 = load ptr, ptr %8, align 8
  %49 = getelementptr inbounds %struct._php_stream, ptr %48, i32 0, i32 4
  store ptr %47, ptr %49, align 8
  %50 = load ptr, ptr %8, align 8
  %51 = getelementptr inbounds %struct._php_stream, ptr %50, i32 0, i32 9
  %52 = load i32, ptr %51, align 4
  %53 = or i32 %52, 66
  store i32 %53, ptr %51, align 4
  br label %54

54:                                               ; preds = %46, %32
  br label %63

55:                                               ; preds = %25, %18
  %56 = load ptr, ptr %9, align 8
  %57 = icmp ne ptr %56, null
  br i1 %57, label %58, label %62

58:                                               ; preds = %55
  %59 = load ptr, ptr %9, align 8
  %60 = load i32, ptr %6, align 4
  %61 = and i32 %60, -9
  call void (ptr, i32, ptr, ...) @php_stream_wrapper_log_error(ptr noundef %59, i32 noundef %61, ptr noundef @.str.20)
  br label %62

62:                                               ; preds = %58, %55
  br label %63

63:                                               ; preds = %62, %54
  %64 = load ptr, ptr %8, align 8
  %65 = icmp eq ptr %64, null
  br i1 %65, label %66, label %73

66:                                               ; preds = %63
  %67 = load i32, ptr %6, align 4
  %68 = and i32 %67, 8
  %69 = icmp ne i32 %68, 0
  br i1 %69, label %70, label %73

70:                                               ; preds = %66
  %71 = load ptr, ptr %9, align 8
  %72 = load ptr, ptr %5, align 8
  call void @php_stream_display_wrapper_errors(ptr noundef %71, ptr noundef %72, ptr noundef @.str.21)
  br label %73

73:                                               ; preds = %70, %66, %63
  %74 = load ptr, ptr %9, align 8
  call void @php_stream_tidy_wrapper_error_log(ptr noundef %74)
  %75 = load ptr, ptr %8, align 8
  store ptr %75, ptr %4, align 8
  br label %76

76:                                               ; preds = %73, %17
  %77 = load ptr, ptr %4, align 8
  ret ptr %77
}