; Function Attrs: nounwind uwtable
define ptr @_php_stream_opendir(ptr noundef %0, i32 noundef %1, ptr noundef %2) local_unnamed_addr #2 {
  %4 = alloca ptr, align 8
  %5 = alloca ptr, align 8
  %.not = icmp eq ptr %0, null
  br i1 %.not, label %32, label %6

6:                                                ; preds = %3
  %7 = load i8, ptr %0, align 1
  %.not30 = icmp eq i8 %7, 0
  br i1 %.not30, label %32, label %8

8:                                                ; preds = %6
  store ptr %0, ptr %5, align 8
  %9 = call ptr @php_stream_locate_url_wrapper(ptr noundef nonnull %0, ptr noundef nonnull %5, i32 noundef %1)
  %.not31 = icmp eq ptr %9, null
  br i1 %.not31, label %.critedge, label %10

10:                                               ; preds = %8
  %11 = load ptr, ptr %9, align 8
  %12 = getelementptr inbounds i8, ptr %11, i64 32
  %13 = load ptr, ptr %12, align 8
  %.not32 = icmp eq ptr %13, null
  br i1 %.not32, label %22, label %14

14:                                               ; preds = %10
  %15 = load ptr, ptr %5, align 8
  %16 = and i32 %1, -9
  %17 = call ptr %13(ptr noundef nonnull %9, ptr noundef %15, ptr noundef nonnull @.str.19, i32 noundef %16, ptr noundef null, ptr noundef %2) #27
  %.not33 = icmp eq ptr %17, null
  br i1 %.not33, label %.critedge, label %.critedge.thread

.critedge.thread:                                 ; preds = %14
  %18 = getelementptr inbounds i8, ptr %17, i64 64
  store ptr %9, ptr %18, align 8
  %19 = getelementptr inbounds i8, ptr %17, i64 116
  %20 = load i32, ptr %19, align 4
  %21 = or i32 %20, 66
  store i32 %21, ptr %19, align 4
  br label %26

22:                                               ; preds = %10
  %23 = and i32 %1, -9
  call void (ptr, i32, ptr, ...) @php_stream_wrapper_log_error(ptr noundef nonnull %9, i32 noundef %23, ptr noundef nonnull @.str.20)
  br label %.critedge

.critedge:                                        ; preds = %8, %22, %14
  %24 = and i32 %1, 8
  %.not34 = icmp eq i32 %24, 0
  br i1 %.not34, label %26, label %25

25:                                               ; preds = %.critedge
  call fastcc void @php_stream_display_wrapper_errors(ptr noundef %9, ptr noundef nonnull %0, ptr noundef nonnull @.str.21)
  br label %26

26:                                               ; preds = %.critedge.thread, %25, %.critedge
  %.038 = phi ptr [ %17, %.critedge.thread ], [ null, %25 ], [ null, %.critedge ]
  call void @llvm.lifetime.start.p0(i64 8, ptr nonnull %4)
  store ptr %9, ptr %4, align 8
  %27 = icmp ne ptr %9, null
  %28 = load ptr, ptr getelementptr inbounds (%struct.php_file_globals, ptr @file_globals, i64 0, i32 10), align 8
  %29 = icmp ne ptr %28, null
  %or.cond.i = select i1 %27, i1 %29, i1 false
  br i1 %or.cond.i, label %30, label %php_stream_tidy_wrapper_error_log.exit

30:                                               ; preds = %26
  %31 = call i32 @zend_hash_str_del(ptr noundef nonnull %28, ptr noundef nonnull %4, i64 noundef 8) #27
  br label %php_stream_tidy_wrapper_error_log.exit

php_stream_tidy_wrapper_error_log.exit:           ; preds = %26, %30
  call void @llvm.lifetime.end.p0(i64 8, ptr nonnull %4)
  br label %32

32:                                               ; preds = %3, %6, %php_stream_tidy_wrapper_error_log.exit
  %.024 = phi ptr [ %.038, %php_stream_tidy_wrapper_error_log.exit ], [ null, %6 ], [ null, %3 ]
  ret ptr %.024
}